ccopy_reg
_reconstructor
p0
(cneat.genome
FFGenome
p1
c__builtin__
object
p2
Ntp3
Rp4
(dp5
S'species_id'
p6
I2
sS'conn_genes'
p7
(dp8
(I23
I51
tp9
g0
(cneat.genes
ConnectionGene
p10
g2
Ntp11
Rp12
(dp13
S'weight'
p14
F-1.7040175754106022
sS'enabled'
p15
I01
sS'out_node_id'
p16
I51
sS'in_node_id'
p17
I23
sbs(I19
I92
tp18
g0
(g10
g2
Ntp19
Rp20
(dp21
g14
F-1.1945948700824625
sg15
I01
sg16
I92
sg17
I19
sbs(I27
I46
tp22
g0
(g10
g2
Ntp23
Rp24
(dp25
g14
F-1.012254636716946
sg15
I01
sg16
I46
sg17
I27
sbs(I42
I71
tp26
g0
(g10
g2
Ntp27
Rp28
(dp29
g14
F-0.2352852266814892
sg15
I00
sg16
I71
sg17
I42
sbs(I48
I62
tp30
g0
(g10
g2
Ntp31
Rp32
(dp33
g14
F3.0512631836746684
sg15
I01
sg16
I62
sg17
I48
sbs(I7
I82
tp34
g0
(g10
g2
Ntp35
Rp36
(dp37
g14
F0.24837555700148073
sg15
I01
sg16
I82
sg17
I7
sbs(I48
I86
tp38
g0
(g10
g2
Ntp39
Rp40
(dp41
g14
F0.1996013177021736
sg15
I01
sg16
I86
sg17
I48
sbs(I19
I66
tp42
g0
(g10
g2
Ntp43
Rp44
(dp45
g14
F0.056275671006780464
sg15
I01
sg16
I66
sg17
I19
sbs(I10
I46
tp46
g0
(g10
g2
Ntp47
Rp48
(dp49
g14
F-1.2000306469962516
sg15
I00
sg16
I46
sg17
I10
sbs(I52
I73
tp50
g0
(g10
g2
Ntp51
Rp52
(dp53
g14
F-0.7023094952423873
sg15
I01
sg16
I73
sg17
I52
sbs(I13
I83
tp54
g0
(g10
g2
Ntp55
Rp56
(dp57
g14
F3.597389076721882
sg15
I01
sg16
I83
sg17
I13
sbs(I30
I51
tp58
g0
(g10
g2
Ntp59
Rp60
(dp61
g14
F-4.629660390692712
sg15
I01
sg16
I51
sg17
I30
sbs(I10
I61
tp62
g0
(g10
g2
Ntp63
Rp64
(dp65
g14
F0.7683702866590202
sg15
I01
sg16
I61
sg17
I10
sbs(I1
I56
tp66
g0
(g10
g2
Ntp67
Rp68
(dp69
g14
F-1.5163003294906217
sg15
I01
sg16
I56
sg17
I1
sbs(I87
I81
tp70
g0
(g10
g2
Ntp71
Rp72
(dp73
g14
F-1.150542711750794
sg15
I01
sg16
I81
sg17
I87
sbs(I2
I63
tp74
g0
(g10
g2
Ntp75
Rp76
(dp77
g14
F-0.3369462122097495
sg15
I00
sg16
I63
sg17
I2
sbs(I1
I45
tp78
g0
(g10
g2
Ntp79
Rp80
(dp81
g14
F1.5671575900310328
sg15
I01
sg16
I45
sg17
I1
sbs(I42
I77
tp82
g0
(g10
g2
Ntp83
Rp84
(dp85
g14
F-0.08509200389073329
sg15
I00
sg16
I77
sg17
I42
sbs(I66
I77
tp86
g0
(g10
g2
Ntp87
Rp88
(dp89
g14
F2.40164125700278
sg15
I00
sg16
I77
sg17
I66
sbs(I16
I65
tp90
g0
(g10
g2
Ntp91
Rp92
(dp93
g14
F-0.6078946897098692
sg15
I00
sg16
I65
sg17
I16
sbs(I32
I57
tp94
g0
(g10
g2
Ntp95
Rp96
(dp97
g14
F-0.1422912391825265
sg15
I00
sg16
I57
sg17
I32
sbs(I5
I84
tp98
g0
(g10
g2
Ntp99
Rp100
(dp101
g14
F-1.1308549253894509
sg15
I00
sg16
I84
sg17
I5
sbs(I61
I66
tp102
g0
(g10
g2
Ntp103
Rp104
(dp105
g14
F1.4301036670393443
sg15
I01
sg16
I66
sg17
I61
sbs(I33
I39
tp106
g0
(g10
g2
Ntp107
Rp108
(dp109
g14
F4.4019523221092935
sg15
I00
sg16
I39
sg17
I33
sbs(I8
I68
tp110
g0
(g10
g2
Ntp111
Rp112
(dp113
g14
F-4.861418432829307
sg15
I00
sg16
I68
sg17
I8
sbs(I21
I78
tp114
g0
(g10
g2
Ntp115
Rp116
(dp117
g14
F2.6991434360360373
sg15
I01
sg16
I78
sg17
I21
sbs(I4
I71
tp118
g0
(g10
g2
Ntp119
Rp120
(dp121
g14
F-1.8074210778010498
sg15
I01
sg16
I71
sg17
I4
sbs(I4
I82
tp122
g0
(g10
g2
Ntp123
Rp124
(dp125
g14
F-1.0745366800566234
sg15
I00
sg16
I82
sg17
I4
sbs(I17
I62
tp126
g0
(g10
g2
Ntp127
Rp128
(dp129
g14
F2.013441679979982
sg15
I01
sg16
I62
sg17
I17
sbs(I82
I81
tp130
g0
(g10
g2
Ntp131
Rp132
(dp133
g14
F-3.1986048547495534
sg15
I01
sg16
I81
sg17
I82
sbs(I35
I82
tp134
g0
(g10
g2
Ntp135
Rp136
(dp137
g14
F-1.3245355598652924
sg15
I01
sg16
I82
sg17
I35
sbs(I0
I80
tp138
g0
(g10
g2
Ntp139
Rp140
(dp141
g14
F-1.5943578655761617
sg15
I01
sg16
I80
sg17
I0
sbs(I22
I42
tp142
g0
(g10
g2
Ntp143
Rp144
(dp145
g14
F-2.5500017280019094
sg15
I00
sg16
I42
sg17
I22
sbs(I61
I69
tp146
g0
(g10
g2
Ntp147
Rp148
(dp149
g14
F5.0
sg15
I01
sg16
I69
sg17
I61
sbs(I16
I81
tp150
g0
(g10
g2
Ntp151
Rp152
(dp153
g14
F-0.3807619166892158
sg15
I01
sg16
I81
sg17
I16
sbs(I16
I38
tp154
g0
(g10
g2
Ntp155
Rp156
(dp157
g14
F0.4301953073321072
sg15
I01
sg16
I38
sg17
I16
sbs(I13
I76
tp158
g0
(g10
g2
Ntp159
Rp160
(dp161
g14
F-0.01589491871941151
sg15
I00
sg16
I76
sg17
I13
sbs(I1
I49
tp162
g0
(g10
g2
Ntp163
Rp164
(dp165
g14
F4.317768603248785
sg15
I00
sg16
I49
sg17
I1
sbs(I53
I73
tp166
g0
(g10
g2
Ntp167
Rp168
(dp169
g14
F-4.527917221044725
sg15
I00
sg16
I73
sg17
I53
sbs(I0
I42
tp170
g0
(g10
g2
Ntp171
Rp172
(dp173
g14
F0.8612694200658679
sg15
I01
sg16
I42
sg17
I0
sbs(I56
I55
tp174
g0
(g10
g2
Ntp175
Rp176
(dp177
g14
F2.312583136183608
sg15
I01
sg16
I55
sg17
I56
sbs(I20
I37
tp178
g0
(g10
g2
Ntp179
Rp180
(dp181
g14
F2.922943334851619
sg15
I01
sg16
I37
sg17
I20
sbs(I65
I70
tp182
g0
(g10
g2
Ntp183
Rp184
(dp185
g14
F1.0490681211524557
sg15
I00
sg16
I70
sg17
I65
sbs(I18
I62
tp186
g0
(g10
g2
Ntp187
Rp188
(dp189
g14
F-2.546049274656632
sg15
I01
sg16
I62
sg17
I18
sbs(I64
I66
tp190
g0
(g10
g2
Ntp191
Rp192
(dp193
g14
F-2.3959456265860983
sg15
I01
sg16
I66
sg17
I64
sbs(I41
I64
tp194
g0
(g10
g2
Ntp195
Rp196
(dp197
g14
F5.0
sg15
I01
sg16
I64
sg17
I41
sbs(I33
I80
tp198
g0
(g10
g2
Ntp199
Rp200
(dp201
g14
F-5.0
sg15
I00
sg16
I80
sg17
I33
sbs(I13
I79
tp202
g0
(g10
g2
Ntp203
Rp204
(dp205
g14
F-3.23424311143588
sg15
I00
sg16
I79
sg17
I13
sbs(I18
I36
tp206
g0
(g10
g2
Ntp207
Rp208
(dp209
g14
F-5.0
sg15
I01
sg16
I36
sg17
I18
sbs(I25
I58
tp210
g0
(g10
g2
Ntp211
Rp212
(dp213
g14
F4.171218666484139
sg15
I00
sg16
I58
sg17
I25
sbs(I24
I46
tp214
g0
(g10
g2
Ntp215
Rp216
(dp217
g14
F-2.101395417000856
sg15
I00
sg16
I46
sg17
I24
sbs(I43
I46
tp218
g0
(g10
g2
Ntp219
Rp220
(dp221
g14
F1.973436397108648
sg15
I01
sg16
I46
sg17
I43
sbs(I67
I61
tp222
g0
(g10
g2
Ntp223
Rp224
(dp225
g14
F-1.5619973961129567
sg15
I01
sg16
I61
sg17
I67
sbs(I3
I91
tp226
g0
(g10
g2
Ntp227
Rp228
(dp229
g14
F1.1082748544288847
sg15
I01
sg16
I91
sg17
I3
sbs(I9
I70
tp230
g0
(g10
g2
Ntp231
Rp232
(dp233
g14
F-0.43129659367980183
sg15
I01
sg16
I70
sg17
I9
sbs(I43
I51
tp234
g0
(g10
g2
Ntp235
Rp236
(dp237
g14
F-0.5830365576320503
sg15
I00
sg16
I51
sg17
I43
sbs(I49
I36
tp238
g0
(g10
g2
Ntp239
Rp240
(dp241
g14
F-2.119679835480224
sg15
I01
sg16
I36
sg17
I49
sbs(I84
I86
tp242
g0
(g10
g2
Ntp243
Rp244
(dp245
g14
F4.256371987663245
sg15
I01
sg16
I86
sg17
I84
sbs(I4
I42
tp246
g0
(g10
g2
Ntp247
Rp248
(dp249
g14
F0.4433476463827644
sg15
I00
sg16
I42
sg17
I4
sbs(I15
I88
tp250
g0
(g10
g2
Ntp251
Rp252
(dp253
g14
F-0.6059700634136183
sg15
I01
sg16
I88
sg17
I15
sbs(I2
I85
tp254
g0
(g10
g2
Ntp255
Rp256
(dp257
g14
F-5.0
sg15
I00
sg16
I85
sg17
I2
sbs(I72
I74
tp258
g0
(g10
g2
Ntp259
Rp260
(dp261
g14
F4.3686335218045595
sg15
I01
sg16
I74
sg17
I72
sbs(I15
I70
tp262
g0
(g10
g2
Ntp263
Rp264
(dp265
g14
F2.16619874137005
sg15
I01
sg16
I70
sg17
I15
sbs(I13
I82
tp266
g0
(g10
g2
Ntp267
Rp268
(dp269
g14
F2.3829336631040428
sg15
I01
sg16
I82
sg17
I13
sbs(I10
I58
tp270
g0
(g10
g2
Ntp271
Rp272
(dp273
g14
F-2.1926112191832092
sg15
I00
sg16
I58
sg17
I10
sbs(I8
I91
tp274
g0
(g10
g2
Ntp275
Rp276
(dp277
g14
F-1.5588591846425561
sg15
I01
sg16
I91
sg17
I8
sbs(I35
I69
tp278
g0
(g10
g2
Ntp279
Rp280
(dp281
g14
F2.3039652249643647
sg15
I01
sg16
I69
sg17
I35
sbs(I45
I49
tp282
g0
(g10
g2
Ntp283
Rp284
(dp285
g14
F-0.39790038888309964
sg15
I01
sg16
I49
sg17
I45
sbs(I13
I44
tp286
g0
(g10
g2
Ntp287
Rp288
(dp289
g14
F2.959051781763425
sg15
I01
sg16
I44
sg17
I13
sbs(I28
I49
tp290
g0
(g10
g2
Ntp291
Rp292
(dp293
g14
F-0.5244455115869787
sg15
I01
sg16
I49
sg17
I28
sbs(I27
I59
tp294
g0
(g10
g2
Ntp295
Rp296
(dp297
g14
F-2.3115211599705914
sg15
I01
sg16
I59
sg17
I27
sbs(I58
I60
tp298
g0
(g10
g2
Ntp299
Rp300
(dp301
g14
F2.200867832749859
sg15
I00
sg16
I60
sg17
I58
sbs(I0
I71
tp302
g0
(g10
g2
Ntp303
Rp304
(dp305
g14
F-1.4831063205784445
sg15
I00
sg16
I71
sg17
I0
sbs(I48
I60
tp306
g0
(g10
g2
Ntp307
Rp308
(dp309
g14
F-0.8028236984849081
sg15
I01
sg16
I60
sg17
I48
sbs(I86
I68
tp310
g0
(g10
g2
Ntp311
Rp312
(dp313
g14
F-0.9332529070149456
sg15
I00
sg16
I68
sg17
I86
sbs(I7
I80
tp314
g0
(g10
g2
Ntp315
Rp316
(dp317
g14
F-2.8046368820721304
sg15
I01
sg16
I80
sg17
I7
sbs(I0
I74
tp318
g0
(g10
g2
Ntp319
Rp320
(dp321
g14
F-0.9519912850451929
sg15
I01
sg16
I74
sg17
I0
sbs(I66
I78
tp322
g0
(g10
g2
Ntp323
Rp324
(dp325
g14
F4.1186809279845855
sg15
I00
sg16
I78
sg17
I66
sbs(I31
I63
tp326
g0
(g10
g2
Ntp327
Rp328
(dp329
g14
F-4.856583738484135
sg15
I01
sg16
I63
sg17
I31
sbs(I85
I71
tp330
g0
(g10
g2
Ntp331
Rp332
(dp333
g14
F3.7290963548042413
sg15
I00
sg16
I71
sg17
I85
sbs(I70
I72
tp334
g0
(g10
g2
Ntp335
Rp336
(dp337
g14
F3.8183365500894215
sg15
I01
sg16
I72
sg17
I70
sbs(I19
I38
tp338
g0
(g10
g2
Ntp339
Rp340
(dp341
g14
F5.0
sg15
I01
sg16
I38
sg17
I19
sbs(I42
I48
tp342
g0
(g10
g2
Ntp343
Rp344
(dp345
g14
F-3.5589074740218543
sg15
I01
sg16
I48
sg17
I42
sbs(I31
I69
tp346
g0
(g10
g2
Ntp347
Rp348
(dp349
g14
F-1.4654490005728682
sg15
I00
sg16
I69
sg17
I31
sbs(I18
I58
tp350
g0
(g10
g2
Ntp351
Rp352
(dp353
g14
F-0.008983322599990018
sg15
I00
sg16
I58
sg17
I18
sbs(I26
I77
tp354
g0
(g10
g2
Ntp355
Rp356
(dp357
g14
F-0.07048426374769903
sg15
I00
sg16
I77
sg17
I26
sbs(I4
I44
tp358
g0
(g10
g2
Ntp359
Rp360
(dp361
g14
F3.970757380072078
sg15
I00
sg16
I44
sg17
I4
sbs(I17
I47
tp362
g0
(g10
g2
Ntp363
Rp364
(dp365
g14
F-2.221228592244088
sg15
I00
sg16
I47
sg17
I17
sbs(I23
I54
tp366
g0
(g10
g2
Ntp367
Rp368
(dp369
g14
F3.4318384071820756
sg15
I00
sg16
I54
sg17
I23
sbs(I41
I44
tp370
g0
(g10
g2
Ntp371
Rp372
(dp373
g14
F5.0
sg15
I00
sg16
I44
sg17
I41
sbs(I22
I67
tp374
g0
(g10
g2
Ntp375
Rp376
(dp377
g14
F2.643125915162488
sg15
I01
sg16
I67
sg17
I22
sbs(I54
I84
tp378
g0
(g10
g2
Ntp379
Rp380
(dp381
g14
F4.458663892062946
sg15
I00
sg16
I84
sg17
I54
sbs(I28
I80
tp382
g0
(g10
g2
Ntp383
Rp384
(dp385
g14
F-4.759770152132816
sg15
I00
sg16
I80
sg17
I28
sbs(I4
I69
tp386
g0
(g10
g2
Ntp387
Rp388
(dp389
g14
F-3.2802512546009144
sg15
I01
sg16
I69
sg17
I4
sbs(I17
I43
tp390
g0
(g10
g2
Ntp391
Rp392
(dp393
g14
F2.0329477787393926
sg15
I01
sg16
I43
sg17
I17
sbs(I46
I56
tp394
g0
(g10
g2
Ntp395
Rp396
(dp397
g14
F-4.030314455138536
sg15
I00
sg16
I56
sg17
I46
sbs(I31
I88
tp398
g0
(g10
g2
Ntp399
Rp400
(dp401
g14
F-3.1164645108632647
sg15
I01
sg16
I88
sg17
I31
sbs(I30
I68
tp402
g0
(g10
g2
Ntp403
Rp404
(dp405
g14
F-0.37724394592736055
sg15
I01
sg16
I68
sg17
I30
sbs(I35
I80
tp406
g0
(g10
g2
Ntp407
Rp408
(dp409
g14
F-3.5593894570977214
sg15
I00
sg16
I80
sg17
I35
sbs(I15
I81
tp410
g0
(g10
g2
Ntp411
Rp412
(dp413
g14
F-2.5624627009495664
sg15
I00
sg16
I81
sg17
I15
sbs(I0
I65
tp414
g0
(g10
g2
Ntp415
Rp416
(dp417
g14
F-4.751434818099241
sg15
I01
sg16
I65
sg17
I0
sbs(I80
I48
tp418
g0
(g10
g2
Ntp419
Rp420
(dp421
g14
F0.7190465653304585
sg15
I00
sg16
I48
sg17
I80
sbs(I49
I53
tp422
g0
(g10
g2
Ntp423
Rp424
(dp425
g14
F-4.586879735255463
sg15
I01
sg16
I53
sg17
I49
sbs(I4
I79
tp426
g0
(g10
g2
Ntp427
Rp428
(dp429
g14
F-5.0
sg15
I01
sg16
I79
sg17
I4
sbs(I67
I43
tp430
g0
(g10
g2
Ntp431
Rp432
(dp433
g14
F-0.1343767907396307
sg15
I01
sg16
I43
sg17
I67
sbs(I16
I55
tp434
g0
(g10
g2
Ntp435
Rp436
(dp437
g14
F0.3497681140622103
sg15
I01
sg16
I55
sg17
I16
sbs(I20
I61
tp438
g0
(g10
g2
Ntp439
Rp440
(dp441
g14
F-5.0
sg15
I00
sg16
I61
sg17
I20
sbs(I4
I90
tp442
g0
(g10
g2
Ntp443
Rp444
(dp445
g14
F-0.45094485885941904
sg15
I01
sg16
I90
sg17
I4
sbs(I18
I38
tp446
g0
(g10
g2
Ntp447
Rp448
(dp449
g14
F-1.4516843607310324
sg15
I00
sg16
I38
sg17
I18
sbs(I33
I73
tp450
g0
(g10
g2
Ntp451
Rp452
(dp453
g14
F-0.06682409734973244
sg15
I00
sg16
I73
sg17
I33
sbs(I88
I81
tp454
g0
(g10
g2
Ntp455
Rp456
(dp457
g14
F-3.7833705574686967
sg15
I00
sg16
I81
sg17
I88
sbs(I80
I39
tp458
g0
(g10
g2
Ntp459
Rp460
(dp461
g14
F1.0211975862167506
sg15
I01
sg16
I39
sg17
I80
sbs(I3
I37
tp462
g0
(g10
g2
Ntp463
Rp464
(dp465
g14
F4.3913497655499425
sg15
I01
sg16
I37
sg17
I3
sbs(I83
I63
tp466
g0
(g10
g2
Ntp467
Rp468
(dp469
g14
F-0.1147146801112251
sg15
I01
sg16
I63
sg17
I83
sbs(I81
I38
tp470
g0
(g10
g2
Ntp471
Rp472
(dp473
g14
F0.8745962716313712
sg15
I00
sg16
I38
sg17
I81
sbs(I32
I46
tp474
g0
(g10
g2
Ntp475
Rp476
(dp477
g14
F4.681712202531551
sg15
I00
sg16
I46
sg17
I32
sbs(I31
I46
tp478
g0
(g10
g2
Ntp479
Rp480
(dp481
g14
F2.3309454114139747
sg15
I01
sg16
I46
sg17
I31
sbs(I24
I76
tp482
g0
(g10
g2
Ntp483
Rp484
(dp485
g14
F1.1495666437232557
sg15
I00
sg16
I76
sg17
I24
sbs(I44
I83
tp486
g0
(g10
g2
Ntp487
Rp488
(dp489
g14
F1.0674679117574004
sg15
I01
sg16
I83
sg17
I44
sbs(I24
I68
tp490
g0
(g10
g2
Ntp491
Rp492
(dp493
g14
F3.024363636605308
sg15
I01
sg16
I68
sg17
I24
sbs(I8
I92
tp494
g0
(g10
g2
Ntp495
Rp496
(dp497
g14
F0.7118074717881324
sg15
I01
sg16
I92
sg17
I8
sbs(I28
I90
tp498
g0
(g10
g2
Ntp499
Rp500
(dp501
g14
F-1.560130478645064
sg15
I00
sg16
I90
sg17
I28
sbs(I10
I67
tp502
g0
(g10
g2
Ntp503
Rp504
(dp505
g14
F4.4286127966131215
sg15
I00
sg16
I67
sg17
I10
sbs(I17
I49
tp506
g0
(g10
g2
Ntp507
Rp508
(dp509
g14
F3.0227164509278257
sg15
I01
sg16
I49
sg17
I17
sbs(I79
I66
tp510
g0
(g10
g2
Ntp511
Rp512
(dp513
g14
F0.24524480016998298
sg15
I01
sg16
I66
sg17
I79
sbs(I20
I74
tp514
g0
(g10
g2
Ntp515
Rp516
(dp517
g14
F-0.040382690792147735
sg15
I01
sg16
I74
sg17
I20
sbs(I9
I85
tp518
g0
(g10
g2
Ntp519
Rp520
(dp521
g14
F0.5354889138582922
sg15
I01
sg16
I85
sg17
I9
sbs(I33
I48
tp522
g0
(g10
g2
Ntp523
Rp524
(dp525
g14
F-1.6401379946938455
sg15
I01
sg16
I48
sg17
I33
sbs(I56
I37
tp526
g0
(g10
g2
Ntp527
Rp528
(dp529
g14
F3.8659779234500284
sg15
I00
sg16
I37
sg17
I56
sbs(I19
I47
tp530
g0
(g10
g2
Ntp531
Rp532
(dp533
g14
F-5.0
sg15
I01
sg16
I47
sg17
I19
sbs(I40
I90
tp534
g0
(g10
g2
Ntp535
Rp536
(dp537
g14
F0.6563083967137098
sg15
I00
sg16
I90
sg17
I40
sbs(I42
I85
tp538
g0
(g10
g2
Ntp539
Rp540
(dp541
g14
F-3.90719986661984
sg15
I00
sg16
I85
sg17
I42
sbs(I80
I77
tp542
g0
(g10
g2
Ntp543
Rp544
(dp545
g14
F2.2392537543011137
sg15
I01
sg16
I77
sg17
I80
sbs(I35
I59
tp546
g0
(g10
g2
Ntp547
Rp548
(dp549
g14
F-0.6971667223025637
sg15
I00
sg16
I59
sg17
I35
sbs(I10
I73
tp550
g0
(g10
g2
Ntp551
Rp552
(dp553
g14
F-0.8553990211502593
sg15
I01
sg16
I73
sg17
I10
sbs(I67
I51
tp554
g0
(g10
g2
Ntp555
Rp556
(dp557
g14
F-4.427781782385375
sg15
I00
sg16
I51
sg17
I67
sbs(I53
I84
tp558
g0
(g10
g2
Ntp559
Rp560
(dp561
g14
F1.9730508229730146
sg15
I01
sg16
I84
sg17
I53
sbs(I7
I67
tp562
g0
(g10
g2
Ntp563
Rp564
(dp565
g14
F3.330726138647222
sg15
I01
sg16
I67
sg17
I7
sbs(I43
I60
tp566
g0
(g10
g2
Ntp567
Rp568
(dp569
g14
F-0.6419096419038841
sg15
I00
sg16
I60
sg17
I43
sbs(I3
I63
tp570
g0
(g10
g2
Ntp571
Rp572
(dp573
g14
F0.5983986757886509
sg15
I01
sg16
I63
sg17
I3
sbs(I44
I63
tp574
g0
(g10
g2
Ntp575
Rp576
(dp577
g14
F0.31093213708723366
sg15
I00
sg16
I63
sg17
I44
sbs(I89
I65
tp578
g0
(g10
g2
Ntp579
Rp580
(dp581
g14
F-4.238973884064663
sg15
I01
sg16
I65
sg17
I89
sbs(I4
I56
tp582
g0
(g10
g2
Ntp583
Rp584
(dp585
g14
F-2.472100825517639
sg15
I01
sg16
I56
sg17
I4
sbs(I20
I69
tp586
g0
(g10
g2
Ntp587
Rp588
(dp589
g14
F-1.1942349994531867
sg15
I00
sg16
I69
sg17
I20
sbs(I45
I66
tp590
g0
(g10
g2
Ntp591
Rp592
(dp593
g14
F-1.3938393942110006
sg15
I01
sg16
I66
sg17
I45
sbs(I4
I70
tp594
g0
(g10
g2
Ntp595
Rp596
(dp597
g14
F0.8043381596082948
sg15
I01
sg16
I70
sg17
I4
sbs(I56
I65
tp598
g0
(g10
g2
Ntp599
Rp600
(dp601
g14
F3.779216393985707
sg15
I00
sg16
I65
sg17
I56
sbs(I32
I89
tp602
g0
(g10
g2
Ntp603
Rp604
(dp605
g14
F3.916320238926192
sg15
I00
sg16
I89
sg17
I32
sbs(I2
I59
tp606
g0
(g10
g2
Ntp607
Rp608
(dp609
g14
F-0.8465064098368589
sg15
I01
sg16
I59
sg17
I2
sbs(I32
I76
tp610
g0
(g10
g2
Ntp611
Rp612
(dp613
g14
F-0.027408206763193332
sg15
I01
sg16
I76
sg17
I32
sbs(I1
I41
tp614
g0
(g10
g2
Ntp615
Rp616
(dp617
g14
F2.8856296924355775
sg15
I00
sg16
I41
sg17
I1
sbs(I23
I58
tp618
g0
(g10
g2
Ntp619
Rp620
(dp621
g14
F3.4001601885461357
sg15
I01
sg16
I58
sg17
I23
sbs(I55
I65
tp622
g0
(g10
g2
Ntp623
Rp624
(dp625
g14
F0.8860490231777982
sg15
I01
sg16
I65
sg17
I55
sbs(I15
I40
tp626
g0
(g10
g2
Ntp627
Rp628
(dp629
g14
F-0.12766390285348483
sg15
I01
sg16
I40
sg17
I15
sbs(I34
I78
tp630
g0
(g10
g2
Ntp631
Rp632
(dp633
g14
F-1.3420238172789583
sg15
I00
sg16
I78
sg17
I34
sbs(I79
I44
tp634
g0
(g10
g2
Ntp635
Rp636
(dp637
g14
F-1.572262552463042
sg15
I00
sg16
I44
sg17
I79
sbs(I18
I64
tp638
g0
(g10
g2
Ntp639
Rp640
(dp641
g14
F5.0
sg15
I01
sg16
I64
sg17
I18
sbs(I11
I37
tp642
g0
(g10
g2
Ntp643
Rp644
(dp645
g14
F-1.456810351210056
sg15
I01
sg16
I37
sg17
I11
sbs(I91
I57
tp646
g0
(g10
g2
Ntp647
Rp648
(dp649
g14
F2.253126992769698
sg15
I00
sg16
I57
sg17
I91
sbs(I59
I38
tp650
g0
(g10
g2
Ntp651
Rp652
(dp653
g14
F-4.278987404706949
sg15
I01
sg16
I38
sg17
I59
sbs(I57
I66
tp654
g0
(g10
g2
Ntp655
Rp656
(dp657
g14
F5.0
sg15
I00
sg16
I66
sg17
I57
sbs(I7
I81
tp658
g0
(g10
g2
Ntp659
Rp660
(dp661
g14
F-0.6015391458783919
sg15
I01
sg16
I81
sg17
I7
sbs(I89
I74
tp662
g0
(g10
g2
Ntp663
Rp664
(dp665
g14
F1.3153826470542556
sg15
I00
sg16
I74
sg17
I89
sbs(I3
I57
tp666
g0
(g10
g2
Ntp667
Rp668
(dp669
g14
F-1.98618341932209
sg15
I01
sg16
I57
sg17
I3
sbs(I15
I87
tp670
g0
(g10
g2
Ntp671
Rp672
(dp673
g14
F1.6421299567078973
sg15
I01
sg16
I87
sg17
I15
sbs(I6
I38
tp674
g0
(g10
g2
Ntp675
Rp676
(dp677
g14
F0.9883591568153045
sg15
I00
sg16
I38
sg17
I6
sbs(I24
I58
tp678
g0
(g10
g2
Ntp679
Rp680
(dp681
g14
F-2.4472304447789117
sg15
I00
sg16
I58
sg17
I24
sbs(I24
I74
tp682
g0
(g10
g2
Ntp683
Rp684
(dp685
g14
F2.454141323398454
sg15
I01
sg16
I74
sg17
I24
sbs(I33
I70
tp686
g0
(g10
g2
Ntp687
Rp688
(dp689
g14
F0.49655595547321674
sg15
I00
sg16
I70
sg17
I33
sbs(I16
I62
tp690
g0
(g10
g2
Ntp691
Rp692
(dp693
g14
F3.739430917227402
sg15
I00
sg16
I62
sg17
I16
sbs(I34
I53
tp694
g0
(g10
g2
Ntp695
Rp696
(dp697
g14
F-3.4749511995231
sg15
I00
sg16
I53
sg17
I34
sbs(I70
I37
tp698
g0
(g10
g2
Ntp699
Rp700
(dp701
g14
F3.267814759137181
sg15
I01
sg16
I37
sg17
I70
sbssS'parent1_id'
p702
I72046
sS'num_inputs'
p703
I36
sS'node_genes'
p704
(dp705
I0
g0
(cneat.genes
NodeGene
p706
g2
Ntp707
Rp708
(dp709
S'activation_type'
p710
S'sigmoid'
p711
sS'bias'
p712
F0.0
sS'type'
p713
S'INPUT'
p714
sS'ID'
p715
I0
sS'response'
p716
F4.924273
sbsI1
g0
(g706
g2
Ntp717
Rp718
(dp719
g710
g711
sg712
F0.0
sg713
g714
sg715
I1
sg716
F4.924273
sbsI2
g0
(g706
g2
Ntp720
Rp721
(dp722
g710
g711
sg712
F0.0
sg713
g714
sg715
I2
sg716
F4.924273
sbsI3
g0
(g706
g2
Ntp723
Rp724
(dp725
g710
g711
sg712
F0.0
sg713
g714
sg715
I3
sg716
F4.924273
sbsI4
g0
(g706
g2
Ntp726
Rp727
(dp728
g710
g711
sg712
F0.0
sg713
g714
sg715
I4
sg716
F4.924273
sbsI5
g0
(g706
g2
Ntp729
Rp730
(dp731
g710
g711
sg712
F0.0
sg713
g714
sg715
I5
sg716
F4.924273
sbsI6
g0
(g706
g2
Ntp732
Rp733
(dp734
g710
g711
sg712
F0.0
sg713
g714
sg715
I6
sg716
F4.924273
sbsI7
g0
(g706
g2
Ntp735
Rp736
(dp737
g710
g711
sg712
F0.0
sg713
g714
sg715
I7
sg716
F4.924273
sbsI8
g0
(g706
g2
Ntp738
Rp739
(dp740
g710
g711
sg712
F0.0
sg713
g714
sg715
I8
sg716
F4.924273
sbsI9
g0
(g706
g2
Ntp741
Rp742
(dp743
g710
g711
sg712
F0.0
sg713
g714
sg715
I9
sg716
F4.924273
sbsI10
g0
(g706
g2
Ntp744
Rp745
(dp746
g710
g711
sg712
F0.0
sg713
g714
sg715
I10
sg716
F4.924273
sbsI11
g0
(g706
g2
Ntp747
Rp748
(dp749
g710
g711
sg712
F0.0
sg713
g714
sg715
I11
sg716
F4.924273
sbsI12
g0
(g706
g2
Ntp750
Rp751
(dp752
g710
g711
sg712
F0.0
sg713
g714
sg715
I12
sg716
F4.924273
sbsI13
g0
(g706
g2
Ntp753
Rp754
(dp755
g710
g711
sg712
F0.0
sg713
g714
sg715
I13
sg716
F4.924273
sbsI14
g0
(g706
g2
Ntp756
Rp757
(dp758
g710
g711
sg712
F0.0
sg713
g714
sg715
I14
sg716
F4.924273
sbsI15
g0
(g706
g2
Ntp759
Rp760
(dp761
g710
g711
sg712
F0.0
sg713
g714
sg715
I15
sg716
F4.924273
sbsI16
g0
(g706
g2
Ntp762
Rp763
(dp764
g710
g711
sg712
F0.0
sg713
g714
sg715
I16
sg716
F4.924273
sbsI17
g0
(g706
g2
Ntp765
Rp766
(dp767
g710
g711
sg712
F0.0
sg713
g714
sg715
I17
sg716
F4.924273
sbsI18
g0
(g706
g2
Ntp768
Rp769
(dp770
g710
g711
sg712
F0.0
sg713
g714
sg715
I18
sg716
F4.924273
sbsI19
g0
(g706
g2
Ntp771
Rp772
(dp773
g710
g711
sg712
F0.0
sg713
g714
sg715
I19
sg716
F4.924273
sbsI20
g0
(g706
g2
Ntp774
Rp775
(dp776
g710
g711
sg712
F0.0
sg713
g714
sg715
I20
sg716
F4.924273
sbsI21
g0
(g706
g2
Ntp777
Rp778
(dp779
g710
g711
sg712
F0.0
sg713
g714
sg715
I21
sg716
F4.924273
sbsI22
g0
(g706
g2
Ntp780
Rp781
(dp782
g710
g711
sg712
F0.0
sg713
g714
sg715
I22
sg716
F4.924273
sbsI23
g0
(g706
g2
Ntp783
Rp784
(dp785
g710
g711
sg712
F0.0
sg713
g714
sg715
I23
sg716
F4.924273
sbsI24
g0
(g706
g2
Ntp786
Rp787
(dp788
g710
g711
sg712
F0.0
sg713
g714
sg715
I24
sg716
F4.924273
sbsI25
g0
(g706
g2
Ntp789
Rp790
(dp791
g710
g711
sg712
F0.0
sg713
g714
sg715
I25
sg716
F4.924273
sbsI26
g0
(g706
g2
Ntp792
Rp793
(dp794
g710
g711
sg712
F0.0
sg713
g714
sg715
I26
sg716
F4.924273
sbsI27
g0
(g706
g2
Ntp795
Rp796
(dp797
g710
g711
sg712
F0.0
sg713
g714
sg715
I27
sg716
F4.924273
sbsI28
g0
(g706
g2
Ntp798
Rp799
(dp800
g710
g711
sg712
F0.0
sg713
g714
sg715
I28
sg716
F4.924273
sbsI29
g0
(g706
g2
Ntp801
Rp802
(dp803
g710
g711
sg712
F0.0
sg713
g714
sg715
I29
sg716
F4.924273
sbsI30
g0
(g706
g2
Ntp804
Rp805
(dp806
g710
g711
sg712
F0.0
sg713
g714
sg715
I30
sg716
F4.924273
sbsI31
g0
(g706
g2
Ntp807
Rp808
(dp809
g710
g711
sg712
F0.0
sg713
g714
sg715
I31
sg716
F4.924273
sbsI32
g0
(g706
g2
Ntp810
Rp811
(dp812
g710
g711
sg712
F0.0
sg713
g714
sg715
I32
sg716
F4.924273
sbsI33
g0
(g706
g2
Ntp813
Rp814
(dp815
g710
g711
sg712
F0.0
sg713
g714
sg715
I33
sg716
F4.924273
sbsI34
g0
(g706
g2
Ntp816
Rp817
(dp818
g710
g711
sg712
F0.0
sg713
g714
sg715
I34
sg716
F4.924273
sbsI35
g0
(g706
g2
Ntp819
Rp820
(dp821
g710
g711
sg712
F0.0
sg713
g714
sg715
I35
sg716
F4.924273
sbsI36
g0
(g706
g2
Ntp822
Rp823
(dp824
g710
S'sigmoid'
p825
sg712
F3.0672727949240493
sg713
S'OUTPUT'
p826
sg715
I36
sg716
F4.9278993039289976
sbsI37
g0
(g706
g2
Ntp827
Rp828
(dp829
g710
g825
sg712
F2.5008610051915743
sg713
g826
sg715
I37
sg716
F4.483589136665113
sbsI38
g0
(g706
g2
Ntp830
Rp831
(dp832
g710
g825
sg712
F0.3451722561332735
sg713
g826
sg715
I38
sg716
F4.285753266359828
sbsI39
g0
(g706
g2
Ntp833
Rp834
(dp835
g710
g825
sg712
F-1.0498066976683542
sg713
g826
sg715
I39
sg716
F4.09672760546724
sbsI40
g0
(g706
g2
Ntp836
Rp837
(dp838
g710
g825
sg712
F-5.0
sg713
S'HIDDEN'
p839
sg715
I40
sg716
F4.715644205871389
sbsI41
g0
(g706
g2
Ntp840
Rp841
(dp842
g710
g825
sg712
F-0.5609098089063309
sg713
g839
sg715
I41
sg716
F4.836519580589666
sbsI42
g0
(g706
g2
Ntp843
Rp844
(dp845
g710
g825
sg712
F1.0186516969976926
sg713
g839
sg715
I42
sg716
F4.910614978935306
sbsI43
g0
(g706
g2
Ntp846
Rp847
(dp848
g710
g825
sg712
F1.3691859267526034
sg713
g839
sg715
I43
sg716
F4.613147559878104
sbsI44
g0
(g706
g2
Ntp849
Rp850
(dp851
g710
g825
sg712
F5.0
sg713
g839
sg715
I44
sg716
F4.844146171045952
sbsI45
g0
(g706
g2
Ntp852
Rp853
(dp854
g710
g825
sg712
F3.437257844360782
sg713
g839
sg715
I45
sg716
F4.706472193372038
sbsI46
g0
(g706
g2
Ntp855
Rp856
(dp857
g710
g825
sg712
F-4.709076785949789
sg713
g839
sg715
I46
sg716
F4.742438389890626
sbsI47
g0
(g706
g2
Ntp858
Rp859
(dp860
g710
g825
sg712
F2.601538541377346
sg713
g839
sg715
I47
sg716
F4.849991224820016
sbsI48
g0
(g706
g2
Ntp861
Rp862
(dp863
g710
g825
sg712
F3.9162383618959735
sg713
g839
sg715
I48
sg716
F4.541653432928608
sbsI49
g0
(g706
g2
Ntp864
Rp865
(dp866
g710
g825
sg712
F5.0
sg713
g839
sg715
I49
sg716
F4.393193100276467
sbsI51
g0
(g706
g2
Ntp867
Rp868
(dp869
g710
g825
sg712
F5.0
sg713
g839
sg715
I51
sg716
F4.055994264929366
sbsI52
g0
(g706
g2
Ntp870
Rp871
(dp872
g710
g825
sg712
F5.0
sg713
g839
sg715
I52
sg716
F4.787985591234919
sbsI53
g0
(g706
g2
Ntp873
Rp874
(dp875
g710
g825
sg712
F-0.7993689601638194
sg713
g839
sg715
I53
sg716
F4.879815958337659
sbsI54
g0
(g706
g2
Ntp876
Rp877
(dp878
g710
g825
sg712
F-2.223591338828222
sg713
g839
sg715
I54
sg716
F4.616532064949135
sbsI55
g0
(g706
g2
Ntp879
Rp880
(dp881
g710
g825
sg712
F4.217423087368819
sg713
g839
sg715
I55
sg716
F4.800665113303024
sbsI56
g0
(g706
g2
Ntp882
Rp883
(dp884
g710
g825
sg712
F2.377886361598364
sg713
g839
sg715
I56
sg716
F4.502333777183608
sbsI57
g0
(g706
g2
Ntp885
Rp886
(dp887
g710
g825
sg712
F5.0
sg713
g839
sg715
I57
sg716
F4.719037595228408
sbsI58
g0
(g706
g2
Ntp888
Rp889
(dp890
g710
g825
sg712
F-1.051070959455339
sg713
g839
sg715
I58
sg716
F4.636904450707274
sbsI59
g0
(g706
g2
Ntp891
Rp892
(dp893
g710
g825
sg712
F5.0
sg713
g839
sg715
I59
sg716
F4.047091036140146
sbsI60
g0
(g706
g2
Ntp894
Rp895
(dp896
g710
g825
sg712
F3.862354529184635
sg713
g839
sg715
I60
sg716
F4.267804083747217
sbsI61
g0
(g706
g2
Ntp897
Rp898
(dp899
g710
g825
sg712
F4.576723881062849
sg713
g839
sg715
I61
sg716
F4.721573338006634
sbsI62
g0
(g706
g2
Ntp900
Rp901
(dp902
g710
g825
sg712
F0.7492407299427444
sg713
g839
sg715
I62
sg716
F4.60443886023497
sbsI63
g0
(g706
g2
Ntp903
Rp904
(dp905
g710
g825
sg712
F-2.445903937501568
sg713
g839
sg715
I63
sg716
F4.771504647751838
sbsI64
g0
(g706
g2
Ntp906
Rp907
(dp908
g710
g825
sg712
F4.139674630064753
sg713
g839
sg715
I64
sg716
F4.680667480002177
sbsI65
g0
(g706
g2
Ntp909
Rp910
(dp911
g710
g825
sg712
F-5.0
sg713
g839
sg715
I65
sg716
F3.8508535001741078
sbsI66
g0
(g706
g2
Ntp912
Rp913
(dp914
g710
g825
sg712
F-5.0
sg713
g839
sg715
I66
sg716
F5.0
sbsI67
g0
(g706
g2
Ntp915
Rp916
(dp917
g710
g825
sg712
F2.6471939244732074
sg713
g839
sg715
I67
sg716
F5.0
sbsI68
g0
(g706
g2
Ntp918
Rp919
(dp920
g710
g825
sg712
F-2.2540758279945954
sg713
g839
sg715
I68
sg716
F4.931849482429892
sbsI69
g0
(g706
g2
Ntp921
Rp922
(dp923
g710
g825
sg712
F-5.0
sg713
g839
sg715
I69
sg716
F4.529070119414813
sbsI70
g0
(g706
g2
Ntp924
Rp925
(dp926
g710
g825
sg712
F-2.03416300483749
sg713
g839
sg715
I70
sg716
F4.323923779061019
sbsI71
g0
(g706
g2
Ntp927
Rp928
(dp929
g710
g825
sg712
F-0.34706996117770283
sg713
g839
sg715
I71
sg716
F4.62167010384034
sbsI72
g0
(g706
g2
Ntp930
Rp931
(dp932
g710
g825
sg712
F-2.088142721130643
sg713
g839
sg715
I72
sg716
F4.697444557129701
sbsI73
g0
(g706
g2
Ntp933
Rp934
(dp935
g710
g825
sg712
F-3.1149220610591346
sg713
g839
sg715
I73
sg716
F5.0
sbsI74
g0
(g706
g2
Ntp936
Rp937
(dp938
g710
g825
sg712
F-1.4579757198590273
sg713
g839
sg715
I74
sg716
F5.0
sbsI76
g0
(g706
g2
Ntp939
Rp940
(dp941
g710
g825
sg712
F-0.9469052471600827
sg713
g839
sg715
I76
sg716
F4.755569097751354
sbsI77
g0
(g706
g2
Ntp942
Rp943
(dp944
g710
g825
sg712
F-3.407902934193486
sg713
g839
sg715
I77
sg716
F4.70489927558368
sbsI78
g0
(g706
g2
Ntp945
Rp946
(dp947
g710
g825
sg712
F1.7013193707651029
sg713
g839
sg715
I78
sg716
F4.7287540143875315
sbsI79
g0
(g706
g2
Ntp948
Rp949
(dp950
g710
g825
sg712
F0.3824957255537793
sg713
g839
sg715
I79
sg716
F4.70950791417902
sbsI80
g0
(g706
g2
Ntp951
Rp952
(dp953
g710
g825
sg712
F2.7514550128217614
sg713
g839
sg715
I80
sg716
F4.805002005723243
sbsI81
g0
(g706
g2
Ntp954
Rp955
(dp956
g710
g825
sg712
F5.0
sg713
g839
sg715
I81
sg716
F4.758226619854453
sbsI82
g0
(g706
g2
Ntp957
Rp958
(dp959
g710
g825
sg712
F-5.0
sg713
g839
sg715
I82
sg716
F5.0
sbsI83
g0
(g706
g2
Ntp960
Rp961
(dp962
g710
g825
sg712
F0.6720387153850713
sg713
g839
sg715
I83
sg716
F4.353840408027614
sbsI84
g0
(g706
g2
Ntp963
Rp964
(dp965
g710
g825
sg712
F2.0979878078576326
sg713
g839
sg715
I84
sg716
F4.944848157359732
sbsI85
g0
(g706
g2
Ntp966
Rp967
(dp968
g710
g825
sg712
F3.1799604545186786
sg713
g839
sg715
I85
sg716
F4.860605590516361
sbsI86
g0
(g706
g2
Ntp969
Rp970
(dp971
g710
g825
sg712
F2.5632100217095566
sg713
g839
sg715
I86
sg716
F4.0995275824831925
sbsI87
g0
(g706
g2
Ntp972
Rp973
(dp974
g710
g825
sg712
F0.6297704820184848
sg713
g839
sg715
I87
sg716
F4.919265321811441
sbsI88
g0
(g706
g2
Ntp975
Rp976
(dp977
g710
g825
sg712
F-1.510314054555128
sg713
g839
sg715
I88
sg716
F5.0
sbsI89
g0
(g706
g2
Ntp978
Rp979
(dp980
g710
g825
sg712
F-2.189651465157568
sg713
g839
sg715
I89
sg716
F4.326355594714422
sbsI90
g0
(g706
g2
Ntp981
Rp982
(dp983
g710
g825
sg712
F2.0680174547056143
sg713
g839
sg715
I90
sg716
F4.4171215787039095
sbsI91
g0
(g706
g2
Ntp984
Rp985
(dp986
g710
g825
sg712
F-1.8875164894208507
sg713
g839
sg715
I91
sg716
F4.622498137688164
sbsI92
g0
(g706
g2
Ntp987
Rp988
(dp989
g710
g825
sg712
F1.5564107381478327
sg713
g839
sg715
I92
sg716
F4.613002619760575
sbssS'node_order'
p990
(lp991
I87
aI40
aI80
aI67
aI41
aI79
aI89
aI42
aI85
aI90
aI43
aI44
aI45
aI46
aI47
aI88
aI48
aI49
aI51
aI52
aI53
aI54
aI56
aI91
aI57
aI92
aI55
aI82
aI58
aI59
aI60
aI83
aI61
aI81
aI62
aI63
aI64
aI65
aI66
aI84
aI86
aI68
aI69
aI70
aI71
aI72
aI73
aI74
aI76
aI77
aI78
asS'num_outputs'
p992
I4
sS'fitness'
p993
cnumpy.core.multiarray
scalar
p994
(cnumpy
dtype
p995
(S'f8'
p996
I0
I1
tp997
Rp998
(I3
S'<'
p999
NNNI-1
I-1
I0
tp1000
bS'\x13;9\xc3\xe9\xeb;\xc0'
p1001
tp1002
Rp1003
sS'parent2_id'
p1004
I72046
sS'config'
p1005
g0
(cneat.config
Config
p1006
g2
Ntp1007
Rp1008
(dp1009
S'weight_stdev'
p1010
F1.0
sS'disjoint_coefficient'
p1011
F1.0
sS'prob_delete_node'
p1012
F0.03
sS'initial_connection'
p1013
S'unconnected'
p1014
sS'stagnation_type'
p1015
cneat.stagnation
DefaultStagnation
p1016
sS'weight_mutation_power'
p1017
F0.82
sS'excess_coefficient'
p1018
F1.0
sS'compatibility_threshold'
p1019
F3.0
sS'pop_size'
p1020
I150
sS'weight_coefficient'
p1021
F0.4
sS'feedforward'
p1022
I01
sS'prob_add_node'
p1023
F0.08
sS'genotype'
p1024
g1
sS'type_config'
p1025
(dp1026
S'DefaultStagnation'
p1027
(lp1028
(S'species_fitness_func'
p1029
S'mean'
p1030
tp1031
a(S'max_stagnation'
p1032
S'15'
p1033
tp1034
asS'DefaultReproduction'
p1035
(lp1036
(S'elitism'
p1037
S'1'
p1038
tp1039
a(S'survival_threshold'
p1040
S'0.2'
p1041
tp1042
assS'prob_mutate_activation'
p1043
F0.0
sS'conn_gene_type'
p1044
g10
sS'connection_fraction'
p1045
NsS'activation_functions'
p1046
(lp1047
g825
asS'response_mutation_power'
p1048
F0.1
sS'prob_add_conn'
p1049
F0.98
sS'checkpoint_time_interval'
p1050
NsS'checkpoint_gen_interval'
p1051
NsS'prob_mutate_bias'
p1052
F0.05
sS'reproduction_type'
p1053
cneat.reproduction
DefaultReproduction
p1054
sS'node_gene_type'
p1055
g706
sS'output_nodes'
p1056
I4
sS'input_nodes'
p1057
I36
sS'prob_replace_weight'
p1058
F0.025
sS'registry'
p1059
(dp1060
S'DefaultStagnation'
p1061
g1016
sS'DefaultReproduction'
p1062
g1054
ssS'hidden_nodes'
p1063
I40
sS'report'
p1064
I01
sS'prob_mutate_response'
p1065
F0.1
sS'collect_statistics'
p1066
I01
sS'max_weight'
p1067
F5.0
sS'min_weight'
p1068
F-5.0
sS'prob_toggle_link'
p1069
F0.01
sS'save_best'
p1070
I00
sS'max_fitness_threshold'
p1071
F0.0
sS'bias_mutation_power'
p1072
F2.093
sS'prob_delete_conn'
p1073
F0.15
sS'reset_on_extinction'
p1074
I01
sS'prob_mutate_weight'
p1075
F0.45
sbsg715
I72344
sb.