ccopy_reg
_reconstructor
p0
(cneat.genome
FFGenome
p1
c__builtin__
object
p2
Ntp3
Rp4
(dp5
S'species_id'
p6
I1
sS'conn_genes'
p7
(dp8
(I23
I51
tp9
g0
(cneat.genes
ConnectionGene
p10
g2
Ntp11
Rp12
(dp13
S'weight'
p14
F-4.27433085948828
sS'enabled'
p15
I01
sS'out_node_id'
p16
I51
sS'in_node_id'
p17
I23
sbs(I47
I54
tp18
g0
(g10
g2
Ntp19
Rp20
(dp21
g14
F-5.0
sg15
I00
sg16
I54
sg17
I47
sbs(I21
I47
tp22
g0
(g10
g2
Ntp23
Rp24
(dp25
g14
F-0.34955004166227555
sg15
I00
sg16
I47
sg17
I21
sbs(I29
I50
tp26
g0
(g10
g2
Ntp27
Rp28
(dp29
g14
F-2.5992356077306127
sg15
I00
sg16
I50
sg17
I29
sbs(I3
I52
tp30
g0
(g10
g2
Ntp31
Rp32
(dp33
g14
F-2.060824076094163
sg15
I00
sg16
I52
sg17
I3
sbs(I14
I59
tp34
g0
(g10
g2
Ntp35
Rp36
(dp37
g14
F1.687032129181091
sg15
I00
sg16
I59
sg17
I14
sbs(I22
I68
tp38
g0
(g10
g2
Ntp39
Rp40
(dp41
g14
F-1.3020648275798916
sg15
I01
sg16
I68
sg17
I22
sbs(I66
I57
tp42
g0
(g10
g2
Ntp43
Rp44
(dp45
g14
F-1.1469440231970056
sg15
I00
sg16
I57
sg17
I66
sbs(I61
I57
tp46
g0
(g10
g2
Ntp47
Rp48
(dp49
g14
F-3.1350173647271493
sg15
I01
sg16
I57
sg17
I61
sbs(I35
I58
tp50
g0
(g10
g2
Ntp51
Rp52
(dp53
g14
F4.4533462160797885
sg15
I00
sg16
I58
sg17
I35
sbs(I63
I42
tp54
g0
(g10
g2
Ntp55
Rp56
(dp57
g14
F-5.0
sg15
I01
sg16
I42
sg17
I63
sbs(I12
I40
tp58
g0
(g10
g2
Ntp59
Rp60
(dp61
g14
F-5.0
sg15
I01
sg16
I40
sg17
I12
sbs(I21
I53
tp62
g0
(g10
g2
Ntp63
Rp64
(dp65
g14
F0.1937627511710047
sg15
I01
sg16
I53
sg17
I21
sbs(I28
I48
tp66
g0
(g10
g2
Ntp67
Rp68
(dp69
g14
F-3.0575932614135457
sg15
I00
sg16
I48
sg17
I28
sbs(I23
I54
tp70
g0
(g10
g2
Ntp71
Rp72
(dp73
g14
F3.494088509824329
sg15
I00
sg16
I54
sg17
I23
sbs(I44
I56
tp74
g0
(g10
g2
Ntp75
Rp76
(dp77
g14
F1.8913292611159305
sg15
I01
sg16
I56
sg17
I44
sbs(I48
I59
tp78
g0
(g10
g2
Ntp79
Rp80
(dp81
g14
F-0.43916785121836854
sg15
I00
sg16
I59
sg17
I48
sbs(I24
I52
tp82
g0
(g10
g2
Ntp83
Rp84
(dp85
g14
F-4.408380139563302
sg15
I01
sg16
I52
sg17
I24
sbs(I19
I50
tp86
g0
(g10
g2
Ntp87
Rp88
(dp89
g14
F5.0
sg15
I01
sg16
I50
sg17
I19
sbs(I60
I36
tp90
g0
(g10
g2
Ntp91
Rp92
(dp93
g14
F4.016067697658716
sg15
I01
sg16
I36
sg17
I60
sbs(I43
I36
tp94
g0
(g10
g2
Ntp95
Rp96
(dp97
g14
F5.0
sg15
I00
sg16
I36
sg17
I43
sbs(I17
I62
tp98
g0
(g10
g2
Ntp99
Rp100
(dp101
g14
F1.4848669279572184
sg15
I01
sg16
I62
sg17
I17
sbs(I63
I58
tp102
g0
(g10
g2
Ntp103
Rp104
(dp105
g14
F-0.4127075294907808
sg15
I00
sg16
I58
sg17
I63
sbs(I18
I61
tp106
g0
(g10
g2
Ntp107
Rp108
(dp109
g14
F-3.3215027817450107
sg15
I01
sg16
I61
sg17
I18
sbs(I73
I62
tp110
g0
(g10
g2
Ntp111
Rp112
(dp113
g14
F-1.5088050428330322
sg15
I01
sg16
I62
sg17
I73
sbs(I52
I37
tp114
g0
(g10
g2
Ntp115
Rp116
(dp117
g14
F4.628559447458775
sg15
I01
sg16
I37
sg17
I52
sbs(I25
I72
tp118
g0
(g10
g2
Ntp119
Rp120
(dp121
g14
F1.731536159299743
sg15
I01
sg16
I72
sg17
I25
sbs(I65
I56
tp122
g0
(g10
g2
Ntp123
Rp124
(dp125
g14
F0.631797262656989
sg15
I01
sg16
I56
sg17
I65
sbs(I61
I50
tp126
g0
(g10
g2
Ntp127
Rp128
(dp129
g14
F2.065652587842727
sg15
I01
sg16
I50
sg17
I61
sbs(I0
I52
tp130
g0
(g10
g2
Ntp131
Rp132
(dp133
g14
F-5.0
sg15
I01
sg16
I52
sg17
I0
sbs(I24
I49
tp134
g0
(g10
g2
Ntp135
Rp136
(dp137
g14
F2.152148060158786
sg15
I01
sg16
I49
sg17
I24
sbs(I8
I65
tp138
g0
(g10
g2
Ntp139
Rp140
(dp141
g14
F-1.1699854631801527
sg15
I01
sg16
I65
sg17
I8
sbs(I69
I47
tp142
g0
(g10
g2
Ntp143
Rp144
(dp145
g14
F2.2792060006503703
sg15
I00
sg16
I47
sg17
I69
sbs(I26
I43
tp146
g0
(g10
g2
Ntp147
Rp148
(dp149
g14
F-0.14553046880216725
sg15
I00
sg16
I43
sg17
I26
sbs(I62
I51
tp150
g0
(g10
g2
Ntp151
Rp152
(dp153
g14
F-5.0
sg15
I01
sg16
I51
sg17
I62
sbs(I70
I51
tp154
g0
(g10
g2
Ntp155
Rp156
(dp157
g14
F-0.5702331791715679
sg15
I01
sg16
I51
sg17
I70
sbs(I31
I40
tp158
g0
(g10
g2
Ntp159
Rp160
(dp161
g14
F3.018953776209868
sg15
I01
sg16
I40
sg17
I31
sbs(I60
I48
tp162
g0
(g10
g2
Ntp163
Rp164
(dp165
g14
F3.1215121099709293
sg15
I00
sg16
I48
sg17
I60
sbs(I26
I73
tp166
g0
(g10
g2
Ntp167
Rp168
(dp169
g14
F1.116321299107347
sg15
I01
sg16
I73
sg17
I26
sbs(I9
I55
tp170
g0
(g10
g2
Ntp171
Rp172
(dp173
g14
F-4.785282957365162
sg15
I01
sg16
I55
sg17
I9
sbs(I6
I57
tp174
g0
(g10
g2
Ntp175
Rp176
(dp177
g14
F-0.4927677244544567
sg15
I00
sg16
I57
sg17
I6
sbs(I17
I55
tp178
g0
(g10
g2
Ntp179
Rp180
(dp181
g14
F-5.0
sg15
I00
sg16
I55
sg17
I17
sbs(I41
I50
tp182
g0
(g10
g2
Ntp183
Rp184
(dp185
g14
F1.497216699660748
sg15
I00
sg16
I50
sg17
I41
sbs(I40
I70
tp186
g0
(g10
g2
Ntp187
Rp188
(dp189
g14
F-0.5610797182141004
sg15
I01
sg16
I70
sg17
I40
sbs(I12
I55
tp190
g0
(g10
g2
Ntp191
Rp192
(dp193
g14
F1.485416224502674
sg15
I00
sg16
I55
sg17
I12
sbs(I2
I59
tp194
g0
(g10
g2
Ntp195
Rp196
(dp197
g14
F-2.89614781094509
sg15
I00
sg16
I59
sg17
I2
sbs(I43
I51
tp198
g0
(g10
g2
Ntp199
Rp200
(dp201
g14
F-0.8317253768752471
sg15
I00
sg16
I51
sg17
I43
sbs(I17
I68
tp202
g0
(g10
g2
Ntp203
Rp204
(dp205
g14
F-0.25014433653374535
sg15
I01
sg16
I68
sg17
I17
sbs(I30
I56
tp206
g0
(g10
g2
Ntp207
Rp208
(dp209
g14
F4.999476487069483
sg15
I00
sg16
I56
sg17
I30
sbs(I19
I61
tp210
g0
(g10
g2
Ntp211
Rp212
(dp213
g14
F1.3873799315954345
sg15
I01
sg16
I61
sg17
I19
sbs(I23
I40
tp214
g0
(g10
g2
Ntp215
Rp216
(dp217
g14
F1.4190947610679774
sg15
I00
sg16
I40
sg17
I23
sbs(I5
I56
tp218
g0
(g10
g2
Ntp219
Rp220
(dp221
g14
F0.8933817536063915
sg15
I01
sg16
I56
sg17
I5
sbs(I35
I40
tp222
g0
(g10
g2
Ntp223
Rp224
(dp225
g14
F-1.0279660266552553
sg15
I00
sg16
I40
sg17
I35
sbs(I11
I46
tp226
g0
(g10
g2
Ntp227
Rp228
(dp229
g14
F0.7566444999941817
sg15
I01
sg16
I46
sg17
I11
sbs(I10
I58
tp230
g0
(g10
g2
Ntp231
Rp232
(dp233
g14
F-1.6483594925926228
sg15
I01
sg16
I58
sg17
I10
sbs(I17
I45
tp234
g0
(g10
g2
Ntp235
Rp236
(dp237
g14
F2.3850108844016886
sg15
I00
sg16
I45
sg17
I17
sbs(I7
I54
tp238
g0
(g10
g2
Ntp239
Rp240
(dp241
g14
F-2.0705830952262905
sg15
I00
sg16
I54
sg17
I7
sbs(I1
I63
tp242
g0
(g10
g2
Ntp243
Rp244
(dp245
g14
F-1.1570247701839558
sg15
I01
sg16
I63
sg17
I1
sbs(I32
I52
tp246
g0
(g10
g2
Ntp247
Rp248
(dp249
g14
F-4.536758326180257
sg15
I00
sg16
I52
sg17
I32
sbs(I33
I49
tp250
g0
(g10
g2
Ntp251
Rp252
(dp253
g14
F4.043127574973063
sg15
I01
sg16
I49
sg17
I33
sbs(I58
I38
tp254
g0
(g10
g2
Ntp255
Rp256
(dp257
g14
F-3.1411803078917617
sg15
I01
sg16
I38
sg17
I58
sbs(I31
I71
tp258
g0
(g10
g2
Ntp259
Rp260
(dp261
g14
F-0.713632252643567
sg15
I01
sg16
I71
sg17
I31
sbs(I17
I40
tp262
g0
(g10
g2
Ntp263
Rp264
(dp265
g14
F0.7057006515655307
sg15
I00
sg16
I40
sg17
I17
sbs(I33
I67
tp266
g0
(g10
g2
Ntp267
Rp268
(dp269
g14
F0.6226251108475549
sg15
I01
sg16
I67
sg17
I33
sbs(I2
I50
tp270
g0
(g10
g2
Ntp271
Rp272
(dp273
g14
F-0.7855669207614077
sg15
I00
sg16
I50
sg17
I2
sbs(I69
I56
tp274
g0
(g10
g2
Ntp275
Rp276
(dp277
g14
F1.604209149247921
sg15
I00
sg16
I56
sg17
I69
sbs(I17
I66
tp278
g0
(g10
g2
Ntp279
Rp280
(dp281
g14
F-2.70966291287266
sg15
I00
sg16
I66
sg17
I17
sbs(I29
I55
tp282
g0
(g10
g2
Ntp283
Rp284
(dp285
g14
F0.8313700992922355
sg15
I01
sg16
I55
sg17
I29
sbs(I2
I44
tp286
g0
(g10
g2
Ntp287
Rp288
(dp289
g14
F-4.943679622438278
sg15
I00
sg16
I44
sg17
I2
sbs(I71
I54
tp290
g0
(g10
g2
Ntp291
Rp292
(dp293
g14
F-1.4616842185919328
sg15
I01
sg16
I54
sg17
I71
sbs(I14
I54
tp294
g0
(g10
g2
Ntp295
Rp296
(dp297
g14
F0.1312026670186951
sg15
I01
sg16
I54
sg17
I14
sbs(I61
I49
tp298
g0
(g10
g2
Ntp299
Rp300
(dp301
g14
F2.161668757628218
sg15
I01
sg16
I49
sg17
I61
sbs(I9
I59
tp302
g0
(g10
g2
Ntp303
Rp304
(dp305
g14
F-4.495832144597138
sg15
I00
sg16
I59
sg17
I9
sbs(I65
I44
tp306
g0
(g10
g2
Ntp307
Rp308
(dp309
g14
F-0.6752087305250029
sg15
I00
sg16
I44
sg17
I65
sbs(I7
I56
tp310
g0
(g10
g2
Ntp311
Rp312
(dp313
g14
F-2.4916704194688992
sg15
I01
sg16
I56
sg17
I7
sbs(I6
I64
tp314
g0
(g10
g2
Ntp315
Rp316
(dp317
g14
F-3.6404231765702795
sg15
I00
sg16
I64
sg17
I6
sbs(I27
I48
tp318
g0
(g10
g2
Ntp319
Rp320
(dp321
g14
F3.5333981206067744
sg15
I00
sg16
I48
sg17
I27
sbs(I21
I42
tp322
g0
(g10
g2
Ntp323
Rp324
(dp325
g14
F-5.0
sg15
I00
sg16
I42
sg17
I21
sbs(I27
I37
tp326
g0
(g10
g2
Ntp327
Rp328
(dp329
g14
F-0.3817001949088703
sg15
I00
sg16
I37
sg17
I27
sbs(I2
I42
tp330
g0
(g10
g2
Ntp331
Rp332
(dp333
g14
F-2.7748716715221677
sg15
I01
sg16
I42
sg17
I2
sbs(I3
I59
tp334
g0
(g10
g2
Ntp335
Rp336
(dp337
g14
F-5.0
sg15
I01
sg16
I59
sg17
I3
sbs(I8
I36
tp338
g0
(g10
g2
Ntp339
Rp340
(dp341
g14
F1.6715301695283655
sg15
I00
sg16
I36
sg17
I8
sbs(I65
I53
tp342
g0
(g10
g2
Ntp343
Rp344
(dp345
g14
F-4.544549808640119
sg15
I00
sg16
I53
sg17
I65
sbs(I24
I64
tp346
g0
(g10
g2
Ntp347
Rp348
(dp349
g14
F4.212182085344525
sg15
I00
sg16
I64
sg17
I24
sbs(I15
I57
tp350
g0
(g10
g2
Ntp351
Rp352
(dp353
g14
F-0.3928909778281111
sg15
I01
sg16
I57
sg17
I15
sbs(I16
I55
tp354
g0
(g10
g2
Ntp355
Rp356
(dp357
g14
F0.14520773413658605
sg15
I01
sg16
I55
sg17
I16
sbs(I62
I43
tp358
g0
(g10
g2
Ntp359
Rp360
(dp361
g14
F1.4212274636529347
sg15
I01
sg16
I43
sg17
I62
sbs(I26
I62
tp362
g0
(g10
g2
Ntp363
Rp364
(dp365
g14
F4.89010458495695
sg15
I01
sg16
I62
sg17
I26
sbs(I7
I63
tp366
g0
(g10
g2
Ntp367
Rp368
(dp369
g14
F-5.0
sg15
I01
sg16
I63
sg17
I7
sbs(I67
I49
tp370
g0
(g10
g2
Ntp371
Rp372
(dp373
g14
F-2.142768871205747
sg15
I00
sg16
I49
sg17
I67
sbs(I47
I48
tp374
g0
(g10
g2
Ntp375
Rp376
(dp377
g14
F-5.0
sg15
I00
sg16
I48
sg17
I47
sbs(I4
I43
tp378
g0
(g10
g2
Ntp379
Rp380
(dp381
g14
F-4.666531058202138
sg15
I00
sg16
I43
sg17
I4
sbs(I30
I47
tp382
g0
(g10
g2
Ntp383
Rp384
(dp385
g14
F-2.500606994916466
sg15
I00
sg16
I47
sg17
I30
sbs(I45
I56
tp386
g0
(g10
g2
Ntp387
Rp388
(dp389
g14
F-1.7248028994669324
sg15
I00
sg16
I56
sg17
I45
sbs(I5
I39
tp390
g0
(g10
g2
Ntp391
Rp392
(dp393
g14
F-0.35333595189057676
sg15
I00
sg16
I39
sg17
I5
sbs(I66
I55
tp394
g0
(g10
g2
Ntp395
Rp396
(dp397
g14
F3.9732014458119056
sg15
I00
sg16
I55
sg17
I66
sbs(I64
I43
tp398
g0
(g10
g2
Ntp399
Rp400
(dp401
g14
F0.8794604405333334
sg15
I00
sg16
I43
sg17
I64
sbs(I16
I48
tp402
g0
(g10
g2
Ntp403
Rp404
(dp405
g14
F-1.3937379201253581
sg15
I01
sg16
I48
sg17
I16
sbs(I25
I52
tp406
g0
(g10
g2
Ntp407
Rp408
(dp409
g14
F-1.5304333314831609
sg15
I00
sg16
I52
sg17
I25
sbs(I16
I52
tp410
g0
(g10
g2
Ntp411
Rp412
(dp413
g14
F-5.0
sg15
I01
sg16
I52
sg17
I16
sbs(I46
I38
tp414
g0
(g10
g2
Ntp415
Rp416
(dp417
g14
F-2.5336332425890413
sg15
I00
sg16
I38
sg17
I46
sbs(I62
I59
tp418
g0
(g10
g2
Ntp419
Rp420
(dp421
g14
F3.659664326912465
sg15
I01
sg16
I59
sg17
I62
sbs(I27
I47
tp422
g0
(g10
g2
Ntp423
Rp424
(dp425
g14
F3.9104294864843308
sg15
I00
sg16
I47
sg17
I27
sbs(I31
I54
tp426
g0
(g10
g2
Ntp427
Rp428
(dp429
g14
F2.10523583681098
sg15
I01
sg16
I54
sg17
I31
sbs(I9
I42
tp430
g0
(g10
g2
Ntp431
Rp432
(dp433
g14
F-1.6587531588111692
sg15
I01
sg16
I42
sg17
I9
sbs(I15
I49
tp434
g0
(g10
g2
Ntp435
Rp436
(dp437
g14
F2.9030058207815173
sg15
I00
sg16
I49
sg17
I15
sbs(I40
I51
tp438
g0
(g10
g2
Ntp439
Rp440
(dp441
g14
F-1.3984953489320457
sg15
I00
sg16
I51
sg17
I40
sbs(I11
I49
tp442
g0
(g10
g2
Ntp443
Rp444
(dp445
g14
F1.7003308712209346
sg15
I01
sg16
I49
sg17
I11
sbs(I46
I51
tp446
g0
(g10
g2
Ntp447
Rp448
(dp449
g14
F-1.732931091772877
sg15
I01
sg16
I51
sg17
I46
sbs(I61
I60
tp450
g0
(g10
g2
Ntp451
Rp452
(dp453
g14
F-0.4353024050354044
sg15
I00
sg16
I60
sg17
I61
sbs(I13
I59
tp454
g0
(g10
g2
Ntp455
Rp456
(dp457
g14
F-2.4668637056752343
sg15
I00
sg16
I59
sg17
I13
sbs(I52
I39
tp458
g0
(g10
g2
Ntp459
Rp460
(dp461
g14
F-1.0942891984762928
sg15
I01
sg16
I39
sg17
I52
sbs(I32
I37
tp462
g0
(g10
g2
Ntp463
Rp464
(dp465
g14
F-1.5490064297411341
sg15
I00
sg16
I37
sg17
I32
sbs(I30
I37
tp466
g0
(g10
g2
Ntp467
Rp468
(dp469
g14
F3.0809937683439097
sg15
I00
sg16
I37
sg17
I30
sbs(I71
I49
tp470
g0
(g10
g2
Ntp471
Rp472
(dp473
g14
F-0.7286337578710672
sg15
I01
sg16
I49
sg17
I71
sbs(I64
I53
tp474
g0
(g10
g2
Ntp475
Rp476
(dp477
g14
F-3.310349406442695
sg15
I01
sg16
I53
sg17
I64
sbs(I22
I64
tp478
g0
(g10
g2
Ntp479
Rp480
(dp481
g14
F-0.4897495375096925
sg15
I01
sg16
I64
sg17
I22
sbs(I31
I61
tp482
g0
(g10
g2
Ntp483
Rp484
(dp485
g14
F-2.2020176577533856
sg15
I01
sg16
I61
sg17
I31
sbs(I68
I40
tp486
g0
(g10
g2
Ntp487
Rp488
(dp489
g14
F4.193481426491207
sg15
I00
sg16
I40
sg17
I68
sbs(I1
I36
tp490
g0
(g10
g2
Ntp491
Rp492
(dp493
g14
F5.0
sg15
I00
sg16
I36
sg17
I1
sbs(I42
I50
tp494
g0
(g10
g2
Ntp495
Rp496
(dp497
g14
F0.8764652729790691
sg15
I00
sg16
I50
sg17
I42
sbs(I21
I41
tp498
g0
(g10
g2
Ntp499
Rp500
(dp501
g14
F0.7903013502931705
sg15
I00
sg16
I41
sg17
I21
sbs(I18
I60
tp502
g0
(g10
g2
Ntp503
Rp504
(dp505
g14
F-4.16267653476467
sg15
I01
sg16
I60
sg17
I18
sbs(I23
I39
tp506
g0
(g10
g2
Ntp507
Rp508
(dp509
g14
F-1.5085555229893637
sg15
I00
sg16
I39
sg17
I23
sbs(I11
I37
tp510
g0
(g10
g2
Ntp511
Rp512
(dp513
g14
F-3.596916139002331
sg15
I01
sg16
I37
sg17
I11
sbs(I0
I45
tp514
g0
(g10
g2
Ntp515
Rp516
(dp517
g14
F2.3300329661908843
sg15
I00
sg16
I45
sg17
I0
sbs(I25
I45
tp518
g0
(g10
g2
Ntp519
Rp520
(dp521
g14
F1.5551751750121174
sg15
I00
sg16
I45
sg17
I25
sbs(I60
I64
tp522
g0
(g10
g2
Ntp523
Rp524
(dp525
g14
F-0.7434051217466465
sg15
I01
sg16
I64
sg17
I60
sbs(I5
I65
tp526
g0
(g10
g2
Ntp527
Rp528
(dp529
g14
F-0.34489940142461784
sg15
I00
sg16
I65
sg17
I5
sbs(I63
I62
tp530
g0
(g10
g2
Ntp531
Rp532
(dp533
g14
F-0.7837287241046035
sg15
I01
sg16
I62
sg17
I63
sbs(I1
I55
tp534
g0
(g10
g2
Ntp535
Rp536
(dp537
g14
F1.4427212393997912
sg15
I00
sg16
I55
sg17
I1
sbs(I9
I48
tp538
g0
(g10
g2
Ntp539
Rp540
(dp541
g14
F2.7512088355833892
sg15
I01
sg16
I48
sg17
I9
sbs(I21
I69
tp542
g0
(g10
g2
Ntp543
Rp544
(dp545
g14
F-0.5774585887975313
sg15
I01
sg16
I69
sg17
I21
sbs(I72
I52
tp546
g0
(g10
g2
Ntp547
Rp548
(dp549
g14
F-1.239840929464397
sg15
I01
sg16
I52
sg17
I72
sbs(I6
I46
tp550
g0
(g10
g2
Ntp551
Rp552
(dp553
g14
F-0.9993705797500984
sg15
I00
sg16
I46
sg17
I6
sbssS'parent1_id'
p554
I43096
sS'num_inputs'
p555
I36
sS'node_genes'
p556
(dp557
I0
g0
(cneat.genes
NodeGene
p558
g2
Ntp559
Rp560
(dp561
S'activation_type'
p562
S'sigmoid'
p563
sS'bias'
p564
F0.0
sS'type'
p565
S'INPUT'
p566
sS'ID'
p567
I0
sS'response'
p568
F4.924273
sbsI1
g0
(g558
g2
Ntp569
Rp570
(dp571
g562
g563
sg564
F0.0
sg565
g566
sg567
I1
sg568
F4.924273
sbsI2
g0
(g558
g2
Ntp572
Rp573
(dp574
g562
g563
sg564
F0.0
sg565
g566
sg567
I2
sg568
F4.924273
sbsI3
g0
(g558
g2
Ntp575
Rp576
(dp577
g562
g563
sg564
F0.0
sg565
g566
sg567
I3
sg568
F4.924273
sbsI4
g0
(g558
g2
Ntp578
Rp579
(dp580
g562
g563
sg564
F0.0
sg565
g566
sg567
I4
sg568
F4.924273
sbsI5
g0
(g558
g2
Ntp581
Rp582
(dp583
g562
g563
sg564
F0.0
sg565
g566
sg567
I5
sg568
F4.924273
sbsI6
g0
(g558
g2
Ntp584
Rp585
(dp586
g562
g563
sg564
F0.0
sg565
g566
sg567
I6
sg568
F4.924273
sbsI7
g0
(g558
g2
Ntp587
Rp588
(dp589
g562
g563
sg564
F0.0
sg565
g566
sg567
I7
sg568
F4.924273
sbsI8
g0
(g558
g2
Ntp590
Rp591
(dp592
g562
g563
sg564
F0.0
sg565
g566
sg567
I8
sg568
F4.924273
sbsI9
g0
(g558
g2
Ntp593
Rp594
(dp595
g562
g563
sg564
F0.0
sg565
g566
sg567
I9
sg568
F4.924273
sbsI10
g0
(g558
g2
Ntp596
Rp597
(dp598
g562
g563
sg564
F0.0
sg565
g566
sg567
I10
sg568
F4.924273
sbsI11
g0
(g558
g2
Ntp599
Rp600
(dp601
g562
g563
sg564
F0.0
sg565
g566
sg567
I11
sg568
F4.924273
sbsI12
g0
(g558
g2
Ntp602
Rp603
(dp604
g562
g563
sg564
F0.0
sg565
g566
sg567
I12
sg568
F4.924273
sbsI13
g0
(g558
g2
Ntp605
Rp606
(dp607
g562
g563
sg564
F0.0
sg565
g566
sg567
I13
sg568
F4.924273
sbsI14
g0
(g558
g2
Ntp608
Rp609
(dp610
g562
g563
sg564
F0.0
sg565
g566
sg567
I14
sg568
F4.924273
sbsI15
g0
(g558
g2
Ntp611
Rp612
(dp613
g562
g563
sg564
F0.0
sg565
g566
sg567
I15
sg568
F4.924273
sbsI16
g0
(g558
g2
Ntp614
Rp615
(dp616
g562
g563
sg564
F0.0
sg565
g566
sg567
I16
sg568
F4.924273
sbsI17
g0
(g558
g2
Ntp617
Rp618
(dp619
g562
g563
sg564
F0.0
sg565
g566
sg567
I17
sg568
F4.924273
sbsI18
g0
(g558
g2
Ntp620
Rp621
(dp622
g562
g563
sg564
F0.0
sg565
g566
sg567
I18
sg568
F4.924273
sbsI19
g0
(g558
g2
Ntp623
Rp624
(dp625
g562
g563
sg564
F0.0
sg565
g566
sg567
I19
sg568
F4.924273
sbsI20
g0
(g558
g2
Ntp626
Rp627
(dp628
g562
g563
sg564
F0.0
sg565
g566
sg567
I20
sg568
F4.924273
sbsI21
g0
(g558
g2
Ntp629
Rp630
(dp631
g562
g563
sg564
F0.0
sg565
g566
sg567
I21
sg568
F4.924273
sbsI22
g0
(g558
g2
Ntp632
Rp633
(dp634
g562
g563
sg564
F0.0
sg565
g566
sg567
I22
sg568
F4.924273
sbsI23
g0
(g558
g2
Ntp635
Rp636
(dp637
g562
g563
sg564
F0.0
sg565
g566
sg567
I23
sg568
F4.924273
sbsI24
g0
(g558
g2
Ntp638
Rp639
(dp640
g562
g563
sg564
F0.0
sg565
g566
sg567
I24
sg568
F4.924273
sbsI25
g0
(g558
g2
Ntp641
Rp642
(dp643
g562
g563
sg564
F0.0
sg565
g566
sg567
I25
sg568
F4.924273
sbsI26
g0
(g558
g2
Ntp644
Rp645
(dp646
g562
g563
sg564
F0.0
sg565
g566
sg567
I26
sg568
F4.924273
sbsI27
g0
(g558
g2
Ntp647
Rp648
(dp649
g562
g563
sg564
F0.0
sg565
g566
sg567
I27
sg568
F4.924273
sbsI28
g0
(g558
g2
Ntp650
Rp651
(dp652
g562
g563
sg564
F0.0
sg565
g566
sg567
I28
sg568
F4.924273
sbsI29
g0
(g558
g2
Ntp653
Rp654
(dp655
g562
g563
sg564
F0.0
sg565
g566
sg567
I29
sg568
F4.924273
sbsI30
g0
(g558
g2
Ntp656
Rp657
(dp658
g562
g563
sg564
F0.0
sg565
g566
sg567
I30
sg568
F4.924273
sbsI31
g0
(g558
g2
Ntp659
Rp660
(dp661
g562
g563
sg564
F0.0
sg565
g566
sg567
I31
sg568
F4.924273
sbsI32
g0
(g558
g2
Ntp662
Rp663
(dp664
g562
g563
sg564
F0.0
sg565
g566
sg567
I32
sg568
F4.924273
sbsI33
g0
(g558
g2
Ntp665
Rp666
(dp667
g562
g563
sg564
F0.0
sg565
g566
sg567
I33
sg568
F4.924273
sbsI34
g0
(g558
g2
Ntp668
Rp669
(dp670
g562
g563
sg564
F0.0
sg565
g566
sg567
I34
sg568
F4.924273
sbsI35
g0
(g558
g2
Ntp671
Rp672
(dp673
g562
g563
sg564
F0.0
sg565
g566
sg567
I35
sg568
F4.924273
sbsI36
g0
(g558
g2
Ntp674
Rp675
(dp676
g562
S'sigmoid'
p677
sg564
F-1.3170938415214104
sg565
S'OUTPUT'
p678
sg567
I36
sg568
F3.8745721686386307
sbsI37
g0
(g558
g2
Ntp679
Rp680
(dp681
g562
g677
sg564
F1.3386325093682947
sg565
g678
sg567
I37
sg568
F4.258442475523772
sbsI38
g0
(g558
g2
Ntp682
Rp683
(dp684
g562
g677
sg564
F-0.4717230419770763
sg565
g678
sg567
I38
sg568
F4.912113898115828
sbsI39
g0
(g558
g2
Ntp685
Rp686
(dp687
g562
g677
sg564
F-0.47133019429546436
sg565
g678
sg567
I39
sg568
F4.506382544389296
sbsI40
g0
(g558
g2
Ntp688
Rp689
(dp690
g562
g677
sg564
F5.0
sg565
S'HIDDEN'
p691
sg567
I40
sg568
F3.92142732129284
sbsI41
g0
(g558
g2
Ntp692
Rp693
(dp694
g562
g677
sg564
F4.436892269862583
sg565
g691
sg567
I41
sg568
F4.99753223569124
sbsI42
g0
(g558
g2
Ntp695
Rp696
(dp697
g562
g677
sg564
F2.103934754166304
sg565
g691
sg567
I42
sg568
F4.175218060042792
sbsI43
g0
(g558
g2
Ntp698
Rp699
(dp700
g562
g677
sg564
F3.6912659250061055
sg565
g691
sg567
I43
sg568
F4.626500554885131
sbsI44
g0
(g558
g2
Ntp701
Rp702
(dp703
g562
g677
sg564
F-5.0
sg565
g691
sg567
I44
sg568
F5.0
sbsI45
g0
(g558
g2
Ntp704
Rp705
(dp706
g562
g677
sg564
F-4.259624177408414
sg565
g691
sg567
I45
sg568
F4.465500512189352
sbsI46
g0
(g558
g2
Ntp707
Rp708
(dp709
g562
g677
sg564
F-0.8300938019372817
sg565
g691
sg567
I46
sg568
F4.886320598902683
sbsI47
g0
(g558
g2
Ntp710
Rp711
(dp712
g562
g677
sg564
F-5.0
sg565
g691
sg567
I47
sg568
F4.295394760407782
sbsI48
g0
(g558
g2
Ntp713
Rp714
(dp715
g562
g677
sg564
F0.7294497171805094
sg565
g691
sg567
I48
sg568
F4.977936121571985
sbsI49
g0
(g558
g2
Ntp716
Rp717
(dp718
g562
g677
sg564
F-3.3189339141235514
sg565
g691
sg567
I49
sg568
F4.858928680520143
sbsI50
g0
(g558
g2
Ntp719
Rp720
(dp721
g562
g677
sg564
F4.299039556245664
sg565
g691
sg567
I50
sg568
F4.299457288702938
sbsI51
g0
(g558
g2
Ntp722
Rp723
(dp724
g562
g677
sg564
F3.359848986293787
sg565
g691
sg567
I51
sg568
F5.0
sbsI52
g0
(g558
g2
Ntp725
Rp726
(dp727
g562
g677
sg564
F-5.0
sg565
g691
sg567
I52
sg568
F4.657027040738078
sbsI53
g0
(g558
g2
Ntp728
Rp729
(dp730
g562
g677
sg564
F-3.9874448817100645
sg565
g691
sg567
I53
sg568
F4.895424478291842
sbsI54
g0
(g558
g2
Ntp731
Rp732
(dp733
g562
g677
sg564
F-0.7410739436914834
sg565
g691
sg567
I54
sg568
F4.671564522778632
sbsI55
g0
(g558
g2
Ntp734
Rp735
(dp736
g562
g677
sg564
F-1.694552413000676
sg565
g691
sg567
I55
sg568
F4.528549093899831
sbsI56
g0
(g558
g2
Ntp737
Rp738
(dp739
g562
g677
sg564
F-3.302842239061849
sg565
g691
sg567
I56
sg568
F4.90537996479627
sbsI57
g0
(g558
g2
Ntp740
Rp741
(dp742
g562
g677
sg564
F-3.7099170681234352
sg565
g691
sg567
I57
sg568
F4.991209144290785
sbsI58
g0
(g558
g2
Ntp743
Rp744
(dp745
g562
g677
sg564
F2.283105854577829
sg565
g691
sg567
I58
sg568
F4.458038439211641
sbsI59
g0
(g558
g2
Ntp746
Rp747
(dp748
g562
g677
sg564
F-3.9709995618678064
sg565
g691
sg567
I59
sg568
F4.967974780095066
sbsI60
g0
(g558
g2
Ntp749
Rp750
(dp751
g562
g677
sg564
F-2.3836457407862266
sg565
g691
sg567
I60
sg568
F4.918913940920453
sbsI61
g0
(g558
g2
Ntp752
Rp753
(dp754
g562
g677
sg564
F0.5265721505265629
sg565
g691
sg567
I61
sg568
F4.354140213460034
sbsI62
g0
(g558
g2
Ntp755
Rp756
(dp757
g562
g677
sg564
F-3.3464800469984413
sg565
g691
sg567
I62
sg568
F4.9288961124736685
sbsI63
g0
(g558
g2
Ntp758
Rp759
(dp760
g562
g677
sg564
F-4.989788035397049
sg565
g691
sg567
I63
sg568
F4.71196532162508
sbsI64
g0
(g558
g2
Ntp761
Rp762
(dp763
g562
g677
sg564
F2.0223327396385904
sg565
g691
sg567
I64
sg568
F5.0
sbsI65
g0
(g558
g2
Ntp764
Rp765
(dp766
g562
g677
sg564
F3.1200837858949155
sg565
g691
sg567
I65
sg568
F4.7735869895941345
sbsI66
g0
(g558
g2
Ntp767
Rp768
(dp769
g562
g677
sg564
F0.03327702539231109
sg565
g691
sg567
I66
sg568
F5.0
sbsI67
g0
(g558
g2
Ntp770
Rp771
(dp772
g562
g677
sg564
F0.8549486553398717
sg565
g691
sg567
I67
sg568
F4.916808948853823
sbsI68
g0
(g558
g2
Ntp773
Rp774
(dp775
g562
g677
sg564
F-2.227853449086495
sg565
g691
sg567
I68
sg568
F4.937283971496726
sbsI69
g0
(g558
g2
Ntp776
Rp777
(dp778
g562
g677
sg564
F-0.49286382017656505
sg565
g691
sg567
I69
sg568
F4.908609283487522
sbsI70
g0
(g558
g2
Ntp779
Rp780
(dp781
g562
g677
sg564
F0.8660946291825394
sg565
g691
sg567
I70
sg568
F4.859828046666331
sbsI71
g0
(g558
g2
Ntp782
Rp783
(dp784
g562
g677
sg564
F0.0
sg565
g691
sg567
I71
sg568
F4.877818756987707
sbsI72
g0
(g558
g2
Ntp785
Rp786
(dp787
g562
g677
sg564
F0.8795078928134605
sg565
g691
sg567
I72
sg568
F5.0
sbsI73
g0
(g558
g2
Ntp788
Rp789
(dp790
g562
g677
sg564
F0.0
sg565
g691
sg567
I73
sg568
F4.924273
sbssS'node_order'
p791
(lp792
I69
aI47
aI73
aI71
aI72
aI61
aI66
aI68
aI40
aI67
aI60
aI63
aI64
aI70
aI62
aI65
aI43
aI42
aI45
aI41
aI46
aI48
aI49
aI50
aI51
aI52
aI53
aI54
aI44
aI55
aI56
aI57
aI58
aI59
asS'num_outputs'
p793
I4
sS'fitness'
p794
cnumpy.core.multiarray
scalar
p795
(cnumpy
dtype
p796
(S'f8'
p797
I0
I1
tp798
Rp799
(I3
S'<'
p800
NNNI-1
I-1
I0
tp801
bS'\x10\x86v9\x9d0D\xc0'
p802
tp803
Rp804
sS'parent2_id'
p805
I43095
sS'config'
p806
g0
(cneat.config
Config
p807
g2
Ntp808
Rp809
(dp810
S'weight_stdev'
p811
F1.0
sS'disjoint_coefficient'
p812
F1.0
sS'prob_delete_node'
p813
F0.03
sS'initial_connection'
p814
S'unconnected'
p815
sS'stagnation_type'
p816
cneat.stagnation
DefaultStagnation
p817
sS'weight_mutation_power'
p818
F0.825
sS'excess_coefficient'
p819
F1.0
sS'compatibility_threshold'
p820
F3.0
sS'pop_size'
p821
I150
sS'weight_coefficient'
p822
F0.4
sS'feedforward'
p823
I01
sS'prob_add_node'
p824
F0.08
sS'genotype'
p825
g1
sS'type_config'
p826
(dp827
S'DefaultStagnation'
p828
(lp829
(S'species_fitness_func'
p830
S'mean'
p831
tp832
a(S'max_stagnation'
p833
S'15'
p834
tp835
asS'DefaultReproduction'
p836
(lp837
(S'elitism'
p838
S'1'
p839
tp840
a(S'survival_threshold'
p841
S'0.2'
p842
tp843
assS'prob_mutate_activation'
p844
F0.0
sS'conn_gene_type'
p845
g10
sS'connection_fraction'
p846
NsS'activation_functions'
p847
(lp848
g677
asS'response_mutation_power'
p849
F0.1
sS'prob_add_conn'
p850
F0.988
sS'checkpoint_time_interval'
p851
NsS'checkpoint_gen_interval'
p852
NsS'prob_mutate_bias'
p853
F0.05
sS'reproduction_type'
p854
cneat.reproduction
DefaultReproduction
p855
sS'node_gene_type'
p856
g558
sS'output_nodes'
p857
I4
sS'input_nodes'
p858
I36
sS'prob_replace_weight'
p859
F0.0245
sS'registry'
p860
(dp861
S'DefaultStagnation'
p862
g817
sS'DefaultReproduction'
p863
g855
ssS'hidden_nodes'
p864
I20
sS'report'
p865
I01
sS'prob_mutate_response'
p866
F0.1
sS'collect_statistics'
p867
I01
sS'max_weight'
p868
F5.0
sS'min_weight'
p869
F-5.0
sS'prob_toggle_link'
p870
F0.0138
sS'save_best'
p871
I00
sS'max_fitness_threshold'
p872
F0.95
sS'bias_mutation_power'
p873
F2.093
sS'prob_delete_conn'
p874
F0.14
sS'reset_on_extinction'
p875
I01
sS'prob_mutate_weight'
p876
F0.46
sbsg567
I43315
sb.